; ModuleID = '63/1951.c'
source_filename = "63/1951.c"
target datalayout = "e-m:e-p270:32:32-p271:32:32-p272:64:64-i64:64-f80:128-n8:16:32:64-S128"
target triple = "x86_64-pc-linux-gnu"

@.str = private unnamed_addr constant [5 x i8] c"%d%d\00", align 1
@.str.1 = private unnamed_addr constant [3 x i8] c"%d\00", align 1
@.str.2 = private unnamed_addr constant [4 x i8] c"%d \00", align 1
@.str.3 = private unnamed_addr constant [4 x i8] c"%d\0A\00", align 1

; Function Attrs: noinline nounwind uwtable
define dso_local i32 @main() #0 {
  %1 = alloca i32, align 4
  %2 = alloca i32, align 4
  %3 = alloca i32, align 4
  %4 = alloca i32, align 4
  %5 = alloca i32, align 4
  %6 = alloca i32, align 4
  %7 = alloca i32, align 4
  %8 = alloca i32, align 4
  %9 = alloca i8*, align 8
  %10 = alloca i64, align 8
  %11 = alloca i64, align 8
  %12 = alloca i64, align 8
  %13 = alloca i64, align 8
  %14 = alloca i64, align 8
  %15 = alloca i64, align 8
  store i32 0, i32* %1, align 4
  %16 = call i32 (i8*, ...) @__isoc99_scanf(i8* getelementptr inbounds ([5 x i8], [5 x i8]* @.str, i64 0, i64 0), i32* %2, i32* %3)
  %17 = load i32, i32* %2, align 4
  %18 = zext i32 %17 to i64
  %19 = load i32, i32* %3, align 4
  %20 = zext i32 %19 to i64
  %21 = call i8* @llvm.stacksave()
  store i8* %21, i8** %9, align 8
  %22 = mul nuw i64 %18, %20
  %23 = alloca i32, i64 %22, align 16
  store i64 %18, i64* %10, align 8
  store i64 %20, i64* %11, align 8
  store i32 0, i32* %6, align 4
  br label %24

24:                                               ; preds = %46, %0
  %25 = load i32, i32* %6, align 4
  %26 = load i32, i32* %2, align 4
  %27 = icmp slt i32 %25, %26
  br i1 %27, label %28, label %49

28:                                               ; preds = %24
  store i32 0, i32* %7, align 4
  br label %29

29:                                               ; preds = %42, %28
  %30 = load i32, i32* %7, align 4
  %31 = load i32, i32* %3, align 4
  %32 = icmp slt i32 %30, %31
  br i1 %32, label %33, label %45

33:                                               ; preds = %29
  %34 = load i32, i32* %6, align 4
  %35 = sext i32 %34 to i64
  %36 = mul nsw i64 %35, %20
  %37 = getelementptr inbounds i32, i32* %23, i64 %36
  %38 = load i32, i32* %7, align 4
  %39 = sext i32 %38 to i64
  %40 = getelementptr inbounds i32, i32* %37, i64 %39
  %41 = call i32 (i8*, ...) @__isoc99_scanf(i8* getelementptr inbounds ([3 x i8], [3 x i8]* @.str.1, i64 0, i64 0), i32* %40)
  br label %42

42:                                               ; preds = %33
  %43 = load i32, i32* %7, align 4
  %44 = add nsw i32 %43, 1
  store i32 %44, i32* %7, align 4
  br label %29

45:                                               ; preds = %29
  br label %46

46:                                               ; preds = %45
  %47 = load i32, i32* %6, align 4
  %48 = add nsw i32 %47, 1
  store i32 %48, i32* %6, align 4
  br label %24

49:                                               ; preds = %24
  %50 = call i32 (i8*, ...) @__isoc99_scanf(i8* getelementptr inbounds ([5 x i8], [5 x i8]* @.str, i64 0, i64 0), i32* %4, i32* %5)
  %51 = load i32, i32* %4, align 4
  %52 = zext i32 %51 to i64
  %53 = load i32, i32* %5, align 4
  %54 = zext i32 %53 to i64
  %55 = mul nuw i64 %52, %54
  %56 = alloca i32, i64 %55, align 16
  store i64 %52, i64* %12, align 8
  store i64 %54, i64* %13, align 8
  store i32 0, i32* %6, align 4
  br label %57

57:                                               ; preds = %79, %49
  %58 = load i32, i32* %6, align 4
  %59 = load i32, i32* %4, align 4
  %60 = icmp slt i32 %58, %59
  br i1 %60, label %61, label %82

61:                                               ; preds = %57
  store i32 0, i32* %7, align 4
  br label %62

62:                                               ; preds = %75, %61
  %63 = load i32, i32* %7, align 4
  %64 = load i32, i32* %5, align 4
  %65 = icmp slt i32 %63, %64
  br i1 %65, label %66, label %78

66:                                               ; preds = %62
  %67 = load i32, i32* %6, align 4
  %68 = sext i32 %67 to i64
  %69 = mul nsw i64 %68, %54
  %70 = getelementptr inbounds i32, i32* %56, i64 %69
  %71 = load i32, i32* %7, align 4
  %72 = sext i32 %71 to i64
  %73 = getelementptr inbounds i32, i32* %70, i64 %72
  %74 = call i32 (i8*, ...) @__isoc99_scanf(i8* getelementptr inbounds ([3 x i8], [3 x i8]* @.str.1, i64 0, i64 0), i32* %73)
  br label %75

75:                                               ; preds = %66
  %76 = load i32, i32* %7, align 4
  %77 = add nsw i32 %76, 1
  store i32 %77, i32* %7, align 4
  br label %62

78:                                               ; preds = %62
  br label %79

79:                                               ; preds = %78
  %80 = load i32, i32* %6, align 4
  %81 = add nsw i32 %80, 1
  store i32 %81, i32* %6, align 4
  br label %57

82:                                               ; preds = %57
  %83 = load i32, i32* %2, align 4
  %84 = zext i32 %83 to i64
  %85 = load i32, i32* %5, align 4
  %86 = zext i32 %85 to i64
  %87 = mul nuw i64 %84, %86
  %88 = alloca i32, i64 %87, align 16
  store i64 %84, i64* %14, align 8
  store i64 %86, i64* %15, align 8
  store i32 0, i32* %6, align 4
  br label %89

89:                                               ; preds = %177, %82
  %90 = load i32, i32* %6, align 4
  %91 = load i32, i32* %2, align 4
  %92 = icmp slt i32 %90, %91
  br i1 %92, label %93, label %180

93:                                               ; preds = %89
  store i32 0, i32* %7, align 4
  br label %94

94:                                               ; preds = %173, %93
  %95 = load i32, i32* %7, align 4
  %96 = load i32, i32* %5, align 4
  %97 = icmp slt i32 %95, %96
  br i1 %97, label %98, label %176

98:                                               ; preds = %94
  %99 = load i32, i32* %6, align 4
  %100 = sext i32 %99 to i64
  %101 = mul nsw i64 %100, %86
  %102 = getelementptr inbounds i32, i32* %88, i64 %101
  %103 = load i32, i32* %7, align 4
  %104 = sext i32 %103 to i64
  %105 = getelementptr inbounds i32, i32* %102, i64 %104
  store i32 0, i32* %105, align 4
  store i32 0, i32* %8, align 4
  br label %106

106:                                              ; preds = %144, %98
  %107 = load i32, i32* %8, align 4
  %108 = load i32, i32* %3, align 4
  %109 = icmp slt i32 %107, %108
  br i1 %109, label %110, label %147

110:                                              ; preds = %106
  %111 = load i32, i32* %6, align 4
  %112 = sext i32 %111 to i64
  %113 = mul nsw i64 %112, %86
  %114 = getelementptr inbounds i32, i32* %88, i64 %113
  %115 = load i32, i32* %7, align 4
  %116 = sext i32 %115 to i64
  %117 = getelementptr inbounds i32, i32* %114, i64 %116
  %118 = load i32, i32* %117, align 4
  %119 = load i32, i32* %6, align 4
  %120 = sext i32 %119 to i64
  %121 = mul nsw i64 %120, %20
  %122 = getelementptr inbounds i32, i32* %23, i64 %121
  %123 = load i32, i32* %8, align 4
  %124 = sext i32 %123 to i64
  %125 = getelementptr inbounds i32, i32* %122, i64 %124
  %126 = load i32, i32* %125, align 4
  %127 = load i32, i32* %8, align 4
  %128 = sext i32 %127 to i64
  %129 = mul nsw i64 %128, %54
  %130 = getelementptr inbounds i32, i32* %56, i64 %129
  %131 = load i32, i32* %7, align 4
  %132 = sext i32 %131 to i64
  %133 = getelementptr inbounds i32, i32* %130, i64 %132
  %134 = load i32, i32* %133, align 4
  %135 = mul nsw i32 %126, %134
  %136 = add nsw i32 %118, %135
  %137 = load i32, i32* %6, align 4
  %138 = sext i32 %137 to i64
  %139 = mul nsw i64 %138, %86
  %140 = getelementptr inbounds i32, i32* %88, i64 %139
  %141 = load i32, i32* %7, align 4
  %142 = sext i32 %141 to i64
  %143 = getelementptr inbounds i32, i32* %140, i64 %142
  store i32 %136, i32* %143, align 4
  br label %144

144:                                              ; preds = %110
  %145 = load i32, i32* %8, align 4
  %146 = add nsw i32 %145, 1
  store i32 %146, i32* %8, align 4
  br label %106

147:                                              ; preds = %106
  %148 = load i32, i32* %7, align 4
  %149 = load i32, i32* %5, align 4
  %150 = sub nsw i32 %149, 1
  %151 = icmp ne i32 %148, %150
  br i1 %151, label %152, label %162

152:                                              ; preds = %147
  %153 = load i32, i32* %6, align 4
  %154 = sext i32 %153 to i64
  %155 = mul nsw i64 %154, %86
  %156 = getelementptr inbounds i32, i32* %88, i64 %155
  %157 = load i32, i32* %7, align 4
  %158 = sext i32 %157 to i64
  %159 = getelementptr inbounds i32, i32* %156, i64 %158
  %160 = load i32, i32* %159, align 4
  %161 = call i32 (i8*, ...) @printf(i8* getelementptr inbounds ([4 x i8], [4 x i8]* @.str.2, i64 0, i64 0), i32 %160)
  br label %172

162:                                              ; preds = %147
  %163 = load i32, i32* %6, align 4
  %164 = sext i32 %163 to i64
  %165 = mul nsw i64 %164, %86
  %166 = getelementptr inbounds i32, i32* %88, i64 %165
  %167 = load i32, i32* %7, align 4
  %168 = sext i32 %167 to i64
  %169 = getelementptr inbounds i32, i32* %166, i64 %168
  %170 = load i32, i32* %169, align 4
  %171 = call i32 (i8*, ...) @printf(i8* getelementptr inbounds ([4 x i8], [4 x i8]* @.str.3, i64 0, i64 0), i32 %170)
  br label %172

172:                                              ; preds = %162, %152
  br label %173

173:                                              ; preds = %172
  %174 = load i32, i32* %7, align 4
  %175 = add nsw i32 %174, 1
  store i32 %175, i32* %7, align 4
  br label %94

176:                                              ; preds = %94
  br label %177

177:                                              ; preds = %176
  %178 = load i32, i32* %6, align 4
  %179 = add nsw i32 %178, 1
  store i32 %179, i32* %6, align 4
  br label %89

180:                                              ; preds = %89
  %181 = load i8*, i8** %9, align 8
  call void @llvm.stackrestore(i8* %181)
  %182 = load i32, i32* %1, align 4
  ret i32 %182
}

declare dso_local i32 @__isoc99_scanf(i8*, ...) #1

; Function Attrs: nounwind
declare i8* @llvm.stacksave() #2

declare dso_local i32 @printf(i8*, ...) #1

; Function Attrs: nounwind
declare void @llvm.stackrestore(i8*) #2


!llvm.module.flags = !{!0}
!llvm.ident = !{!1}

!0 = !{i32 1, !"wchar_size", i32 4}
!1 = !{!"clang version 10.0.0-4ubuntu1 "}
